target datalayout = "e-m:e-p270:32:32-p271:32:32-p272:64:64-i64:64-i128:128-f80:128-n8:16:32:64-S128"
target triple = "x86_64-pc-linux-gnu"

; Function Attrs: nounwind uwtable
define internal void @spatial_compensation_9(ptr noalias noundef %0, ptr noalias noundef %1, i64 noundef %2) #1 {
  %4 = alloca ptr, align 8
  %5 = alloca ptr, align 8
  %6 = alloca i64, align 8
  %7 = alloca i32, align 4
  %8 = alloca i32, align 4
  store ptr %0, ptr %4, align 8, !tbaa !14
  store ptr %1, ptr %5, align 8, !tbaa !14
  store i64 %2, ptr %6, align 8, !tbaa !16
  call void @llvm.lifetime.start.p0(i64 4, ptr %7) #6
  call void @llvm.lifetime.start.p0(i64 4, ptr %8) #6
  store i32 0, ptr %8, align 4, !tbaa !18
  br label %9

9:                                                ; preds = %44, %3
  %10 = load i32, ptr %8, align 4, !tbaa !18
  %11 = icmp slt i32 %10, 8
  br i1 %11, label %12, label %47

12:                                               ; preds = %9
  store i32 0, ptr %7, align 4, !tbaa !18
  br label %13

13:                                               ; preds = %37, %12
  %14 = load i32, ptr %7, align 4, !tbaa !18
  %15 = icmp slt i32 %14, 8
  br i1 %15, label %16, label %40

16:                                               ; preds = %13
  %17 = load ptr, ptr %4, align 8, !tbaa !14
  %18 = load i32, ptr %7, align 4, !tbaa !18
  %19 = load i32, ptr %8, align 4, !tbaa !18
  %20 = add nsw i32 %18, %19
  %21 = icmp sgt i32 %20, 6
  br i1 %21, label %22, label %23

22:                                               ; preds = %16
  br label %27

23:                                               ; preds = %16
  %24 = load i32, ptr %7, align 4, !tbaa !18
  %25 = load i32, ptr %8, align 4, !tbaa !18
  %26 = add nsw i32 %24, %25
  br label %27

27:                                               ; preds = %23, %22
  %28 = phi i32 [ 6, %22 ], [ %26, %23 ]
  %29 = sub nsw i32 14, %28
  %30 = sext i32 %29 to i64
  %31 = getelementptr inbounds i8, ptr %17, i64 %30
  %32 = load i8, ptr %31, align 1, !tbaa !22
  %33 = load ptr, ptr %5, align 8, !tbaa !14
  %34 = load i32, ptr %7, align 4, !tbaa !18
  %35 = sext i32 %34 to i64
  %36 = getelementptr inbounds i8, ptr %33, i64 %35
  store i8 %32, ptr %36, align 1, !tbaa !22
  br label %37

37:                                               ; preds = %27
  %38 = load i32, ptr %7, align 4, !tbaa !18
  %39 = add nsw i32 %38, 1
  store i32 %39, ptr %7, align 4, !tbaa !18
  br label %13, !llvm.loop !52

40:                                               ; preds = %13
  %41 = load i64, ptr %6, align 8, !tbaa !16
  %42 = load ptr, ptr %5, align 8, !tbaa !14
  %43 = getelementptr inbounds i8, ptr %42, i64 %41
  store ptr %43, ptr %5, align 8, !tbaa !14
  br label %44

44:                                               ; preds = %40
  %45 = load i32, ptr %8, align 4, !tbaa !18
  %46 = add nsw i32 %45, 1
  store i32 %46, ptr %8, align 4, !tbaa !18
  br label %9, !llvm.loop !53

47:                                               ; preds = %9
  call void @llvm.lifetime.end.p0(i64 4, ptr %8) #6
  call void @llvm.lifetime.end.p0(i64 4, ptr %7) #6
  ret void
}