; Function Attrs: nofree norecurse nosync nounwind memory(argmem: readwrite) uwtable
define internal void @spatial_compensation_9(ptr noalias noundef readonly captures(none) %0, ptr noalias noundef writeonly captures(none) %1, i64 noundef %2) #1 {
  br label %.preheader

.preheader:                                       ; preds = %3, %13
  %indvars.iv18 = phi i64 [ 0, %3 ], [ %indvars.iv.next19, %13 ]
  %.01315 = phi ptr [ %1, %3 ], [ %14, %13 ]
  br label %4

4:                                                ; preds = %.preheader, %4
  %indvars.iv = phi i64 [ 0, %.preheader ], [ %indvars.iv.next, %4 ]
  %5 = add nuw nsw i64 %indvars.iv, %indvars.iv18
  %6 = trunc nuw nsw i64 %5 to i32
  %7 = tail call i32 @llvm.umin.i32(i32 %6, i32 6)
  %8 = sub nuw nsw i32 14, %7
  %9 = zext nneg i32 %8 to i64
  %10 = getelementptr inbounds nuw i8, ptr %0, i64 %9
  %11 = load i8, ptr %10, align 1, !tbaa !14
  %12 = getelementptr inbounds nuw i8, ptr %.01315, i64 %indvars.iv
  store i8 %11, ptr %12, align 1, !tbaa !14
  %indvars.iv.next = add nuw nsw i64 %indvars.iv, 1
  %exitcond.not = icmp eq i64 %indvars.iv.next, 8
  br i1 %exitcond.not, label %13, label %4, !llvm.loop !42

13:                                               ; preds = %4
  %14 = getelementptr inbounds i8, ptr %.01315, i64 %2
  %indvars.iv.next19 = add nuw nsw i64 %indvars.iv18, 1
  %exitcond21.not = icmp eq i64 %indvars.iv.next19, 8
  br i1 %exitcond21.not, label %15, label %.preheader, !llvm.loop !43

15:                                               ; preds = %13
  ret void
}